; Function Attrs: mustprogress nofree norecurse nosync nounwind willreturn memory(read, inaccessiblemem: none) uwtable
define dso_local range(i32 0, 2) i32 @_quicklistNodeAllowInsert(ptr noundef readonly captures(address_is_null) %0, i32 noundef %1, i64 noundef %2) local_unnamed_addr #12 {
  %.not = icmp eq ptr %0, null
  br i1 %.not, label %.critedge, label %4, !prof !24

4:                                                ; preds = %3
  %5 = getelementptr inbounds nuw i8, ptr %0, i64 32
  %6 = load i32, ptr %5, align 8
  %7 = and i32 %6, 786432
  %8 = icmp eq i32 %7, 262144
  br i1 %8, label %.critedge, label %9, !prof !24

9:                                                ; preds = %4
  %10 = load i64, ptr @packed_threshold, align 8, !tbaa !5
  %.not.i = icmp eq i64 %10, 0
  br i1 %.not.i, label %12, label %11, !prof !26

11:                                               ; preds = %9
  %.not14 = icmp ult i64 %2, %10
  br i1 %.not14, label %28, label %.critedge, !prof !26

12:                                               ; preds = %9
  %13 = icmp sgt i32 %1, -1
  br i1 %13, label %14, label %isLargeElement.exit

14:                                               ; preds = %12
  %15 = icmp ugt i64 %2, 8192
  br i1 %15, label %.critedge, label %.thread, !prof !24

.thread:                                          ; preds = %14
  %16 = getelementptr inbounds nuw i8, ptr %0, i64 24
  %17 = load i64, ptr %16, align 8, !tbaa !15
  %18 = add nuw nsw i64 %2, 8
  %19 = add i64 %18, %17
  br label %38

isLargeElement.exit:                              ; preds = %12
  %20 = tail call i32 @llvm.umax.i32(i32 range(i32 -2147483648, 0) %1, i32 -5)
  %narrow.i.i = xor i32 %20, -1
  %.0.i.i = zext nneg i32 %narrow.i.i to i64
  %21 = getelementptr inbounds nuw [5 x i64], ptr @optimization_level, i64 0, i64 %.0.i.i
  %22 = load i64, ptr %21, align 8, !tbaa !5
  %23 = icmp ugt i64 %2, %22
  br i1 %23, label %.critedge, label %.thread13, !prof !24

.thread13:                                        ; preds = %isLargeElement.exit
  %24 = getelementptr inbounds nuw i8, ptr %0, i64 24
  %25 = load i64, ptr %24, align 8, !tbaa !15
  %26 = add i64 %2, 8
  %27 = add i64 %26, %25
  br label %quicklistNodeLimit.exit.i

28:                                               ; preds = %11
  %29 = getelementptr inbounds nuw i8, ptr %0, i64 24
  %30 = load i64, ptr %29, align 8, !tbaa !15
  %31 = add i64 %2, 8
  %32 = add i64 %31, %30
  %33 = icmp sgt i32 %1, -1
  br i1 %33, label %38, label %.quicklistNodeLimit.exit.i_crit_edge

.quicklistNodeLimit.exit.i_crit_edge:             ; preds = %28
  %.pre = tail call i32 @llvm.umax.i32(i32 range(i32 -2147483648, 0) %1, i32 -5)
  %.pre15 = xor i32 %.pre, -1
  %.pre16 = zext nneg i32 %.pre15 to i64
  br label %quicklistNodeLimit.exit.i

quicklistNodeLimit.exit.i:                        ; preds = %.quicklistNodeLimit.exit.i_crit_edge, %.thread13
  %.0.i.i.i.pre-phi = phi i64 [ %.pre16, %.quicklistNodeLimit.exit.i_crit_edge ], [ %.0.i.i, %.thread13 ]
  %34 = phi i64 [ %32, %.quicklistNodeLimit.exit.i_crit_edge ], [ %27, %.thread13 ]
  %35 = getelementptr inbounds nuw [5 x i64], ptr @optimization_level, i64 0, i64 %.0.i.i.i.pre-phi
  %36 = load i64, ptr %35, align 8, !tbaa !5
  %37 = icmp ugt i64 %34, %36
  br label %quicklistNodeExceedsLimit.exit

38:                                               ; preds = %.thread, %28
  %39 = phi i64 [ %19, %.thread ], [ %32, %28 ]
  %.in = and i32 %6, 65535
  %40 = tail call i32 @llvm.umax.i32(i32 %1, i32 1)
  %41 = icmp ugt i64 %39, 8192
  %42 = icmp samesign uge i32 %.in, %40
  %spec.select.i = or i1 %42, %41
  br label %quicklistNodeExceedsLimit.exit

quicklistNodeExceedsLimit.exit:                   ; preds = %quicklistNodeLimit.exit.i, %38
  %.0.shrunk.i = phi i1 [ %37, %quicklistNodeLimit.exit.i ], [ %spec.select.i, %38 ]
  %.not9 = xor i1 %.0.shrunk.i, true
  %. = zext i1 %.not9 to i32
  br label %.critedge

.critedge:                                        ; preds = %14, %11, %4, %isLargeElement.exit, %3, %quicklistNodeExceedsLimit.exit
  %.0 = phi i32 [ %., %quicklistNodeExceedsLimit.exit ], [ 0, %3 ], [ 0, %isLargeElement.exit ], [ 0, %4 ], [ 0, %11 ], [ 0, %14 ]
  ret i32 %.0
}